target datalayout = "e-m:e-p270:32:32-p271:32:32-p272:64:64-i64:64-i128:128-f80:128-n8:16:32:64-S128"
target triple = "x86_64-unknown-linux-gnu"

%"class.icu_75::UnicodeString" = type { %"class.icu_75::Replaceable", %"union.icu_75::UnicodeString::StackBufferOrFields" }
%"class.icu_75::Replaceable" = type { %"class.icu_75::UObject" }
%"class.icu_75::UObject" = type { ptr }
%"union.icu_75::UnicodeString::StackBufferOrFields" = type { %struct.anon.0, [32 x i8] }
%struct.anon.0 = type { i16, i32, i32, ptr }
%struct.anon = type { i16, [27 x i16] }

@_ZTVN6icu_757UObjectE = external unnamed_addr constant { [5 x ptr] }, align 8
@_ZTVN6icu_7513UnicodeStringE = external unnamed_addr constant { [13 x ptr] }, align 8
@_ZTVN6icu_7511ReplaceableE = external unnamed_addr constant { [13 x ptr] }, align 8

; Function Attrs: mustprogress nounwind uwtable
define linkonce_odr void @_ZN6icu_757UObjectC2Ev(ptr noundef nonnull align 8 dereferenceable(8) %this) unnamed_addr #2 comdat align 2 {
entry:
  %this.addr = alloca ptr, align 8
  store ptr %this, ptr %this.addr, align 8
  %this1 = load ptr, ptr %this.addr, align 8
  store ptr getelementptr inbounds ({ [5 x ptr] }, ptr @_ZTVN6icu_757UObjectE, i32 0, i32 0, i32 2), ptr %this1, align 8
  ret void
}

; Function Attrs: mustprogress nounwind uwtable
define linkonce_odr void @_ZN6icu_7511ReplaceableC2Ev(ptr noundef nonnull align 8 dereferenceable(8) %this) unnamed_addr #2 comdat align 2 {
entry:
  %this.addr = alloca ptr, align 8
  store ptr %this, ptr %this.addr, align 8
  %this1 = load ptr, ptr %this.addr, align 8
  call void @_ZN6icu_757UObjectC2Ev(ptr noundef nonnull align 8 dereferenceable(8) %this1) #11
  store ptr getelementptr inbounds ({ [13 x ptr] }, ptr @_ZTVN6icu_7511ReplaceableE, i32 0, i32 0, i32 2), ptr %this1, align 8
  ret void
}

; Function Attrs: mustprogress uwtable
define linkonce_odr void @_ZN6icu_7513UnicodeStringC2Ev(ptr noundef nonnull align 8 dereferenceable(64) %this) unnamed_addr #0 comdat align 2 {
entry:
  %this.addr = alloca ptr, align 8
  store ptr %this, ptr %this.addr, align 8
  %this1 = load ptr, ptr %this.addr, align 8
  call void @_ZN6icu_7511ReplaceableC2Ev(ptr noundef nonnull align 8 dereferenceable(8) %this1)
  store ptr getelementptr inbounds ({ [13 x ptr] }, ptr @_ZTVN6icu_7513UnicodeStringE, i32 0, i32 0, i32 2), ptr %this1, align 8
  %fUnion2 = getelementptr inbounds %"class.icu_75::UnicodeString", ptr %this1, i32 0, i32 1
  %fLengthAndFlags = getelementptr inbounds %struct.anon, ptr %fUnion2, i32 0, i32 0
  store i16 2, ptr %fLengthAndFlags, align 8
  ret void
}

; Function Attrs: mustprogress uwtable
define noundef ptr @_ZN6icu_758TimeZone20createCustomTimeZoneERKNS_13UnicodeStringE(ptr noundef nonnull align 8 dereferenceable(64) %id) #0 align 2 personality ptr @__gxx_personality_v0 {
entry:
  %retval = alloca ptr, align 8
  %id.addr = alloca ptr, align 8
  %sign = alloca i32, align 4
  %hour = alloca i32, align 4
  %min = alloca i32, align 4
  %sec = alloca i32, align 4
  %customID = alloca %"class.icu_75::UnicodeString", align 8
  %exn.slot = alloca ptr, align 8
  %ehselector.slot = alloca i32, align 4
  %offset = alloca i32, align 4
  %saved-rvalue = alloca ptr, align 8
  %cleanup.cond = alloca i1, align 1
  store ptr %id, ptr %id.addr, align 8
  %0 = load ptr, ptr %id.addr, align 8
  %call = call noundef signext i8 @_ZN6icu_758TimeZone13parseCustomIDERKNS_13UnicodeStringERiS4_S4_S4_(ptr noundef nonnull align 8 dereferenceable(64) %0, ptr noundef nonnull align 4 dereferenceable(4) %sign, ptr noundef nonnull align 4 dereferenceable(4) %hour, ptr noundef nonnull align 4 dereferenceable(4) %min, ptr noundef nonnull align 4 dereferenceable(4) %sec)
  %tobool = icmp ne i8 %call, 0
  br i1 %tobool, label %if.then, label %if.end

if.then:                                          ; preds = %entry
  call void @_ZN6icu_7513UnicodeStringC2Ev(ptr noundef nonnull align 8 dereferenceable(64) %customID)
  %1 = load i32, ptr %hour, align 4
  %2 = load i32, ptr %min, align 4
  %3 = load i32, ptr %sec, align 4
  %4 = load i32, ptr %sign, align 4
  %cmp = icmp slt i32 %4, 0
  %conv = zext i1 %cmp to i8
  %call1 = invoke noundef nonnull align 8 dereferenceable(64) ptr @_ZN6icu_758TimeZone14formatCustomIDEiiiaRNS_13UnicodeStringE(i32 noundef %1, i32 noundef %2, i32 noundef %3, i8 noundef signext %conv, ptr noundef nonnull align 8 dereferenceable(64) %customID)
          to label %invoke.cont unwind label %lpad

invoke.cont:                                      ; preds = %if.then
  %5 = load i32, ptr %sign, align 4
  %6 = load i32, ptr %hour, align 4
  %mul = mul nsw i32 %6, 60
  %7 = load i32, ptr %min, align 4
  %add = add nsw i32 %mul, %7
  %mul2 = mul nsw i32 %add, 60
  %8 = load i32, ptr %sec, align 4
  %add3 = add nsw i32 %mul2, %8
  %mul4 = mul nsw i32 %5, %add3
  %mul5 = mul nsw i32 %mul4, 1000
  store i32 %mul5, ptr %offset, align 4
  %call6 = call noundef ptr @_ZN6icu_757UMemorynwEm(i64 noundef 160) #11
  %new.isnull = icmp eq ptr %call6, null
  store i1 false, ptr %cleanup.cond, align 1
  br i1 %new.isnull, label %new.cont, label %new.notnull

new.notnull:                                      ; preds = %invoke.cont
  store ptr %call6, ptr %saved-rvalue, align 8
  store i1 true, ptr %cleanup.cond, align 1
  %9 = load i32, ptr %offset, align 4
  invoke void @_ZN6icu_7514SimpleTimeZoneC1EiRKNS_13UnicodeStringE(ptr noundef nonnull align 8 dereferenceable(160) %call6, i32 noundef %9, ptr noundef nonnull align 8 dereferenceable(64) %customID)
          to label %invoke.cont8 unwind label %lpad7

invoke.cont8:                                     ; preds = %new.notnull
  br label %new.cont

new.cont:                                         ; preds = %invoke.cont8, %invoke.cont
  %10 = phi ptr [ %call6, %invoke.cont8 ], [ null, %invoke.cont ]
  store ptr %10, ptr %retval, align 8
  call void @_ZN6icu_7513UnicodeStringD1Ev(ptr noundef nonnull align 8 dereferenceable(64) %customID) #11
  br label %return

lpad:                                             ; preds = %if.then
  %11 = landingpad { ptr, i32 }
          cleanup
  %12 = extractvalue { ptr, i32 } %11, 0
  store ptr %12, ptr %exn.slot, align 8
  %13 = extractvalue { ptr, i32 } %11, 1
  store i32 %13, ptr %ehselector.slot, align 4
  br label %ehcleanup

lpad7:                                            ; preds = %new.notnull
  %14 = landingpad { ptr, i32 }
          cleanup
  %15 = extractvalue { ptr, i32 } %14, 0
  store ptr %15, ptr %exn.slot, align 8
  %16 = extractvalue { ptr, i32 } %14, 1
  store i32 %16, ptr %ehselector.slot, align 4
  %cleanup.is_active = load i1, ptr %cleanup.cond, align 1
  br i1 %cleanup.is_active, label %cleanup.action, label %cleanup.done

cleanup.action:                                   ; preds = %lpad7
  %17 = load ptr, ptr %saved-rvalue, align 8
  call void @_ZN6icu_757UMemorydlEPv(ptr noundef %17) #11
  br label %cleanup.done

cleanup.done:                                     ; preds = %cleanup.action, %lpad7
  br label %ehcleanup

ehcleanup:                                        ; preds = %cleanup.done, %lpad
  call void @_ZN6icu_7513UnicodeStringD1Ev(ptr noundef nonnull align 8 dereferenceable(64) %customID) #11
  br label %eh.resume

if.end:                                           ; preds = %entry
  store ptr null, ptr %retval, align 8
  br label %return

return:                                           ; preds = %if.end, %new.cont
  %18 = load ptr, ptr %retval, align 8
  ret ptr %18

eh.resume:                                        ; preds = %ehcleanup
  %exn = load ptr, ptr %exn.slot, align 8
  %sel = load i32, ptr %ehselector.slot, align 4
  %lpad.val = insertvalue { ptr, i32 } poison, ptr %exn, 0
  %lpad.val9 = insertvalue { ptr, i32 } %lpad.val, i32 %sel, 1
  resume { ptr, i32 } %lpad.val9
}