; Function Attrs: mustprogress uwtable
define noundef ptr @_ZN6icu_758TimeZone20createCustomTimeZoneERKNS_13UnicodeStringE(ptr noundef nonnull align 8 dereferenceable(64) %id) local_unnamed_addr #0 align 2 personality ptr @__gxx_personality_v0 {
entry:
  %sign = alloca i32, align 4
  %hour = alloca i32, align 4
  %min = alloca i32, align 4
  %sec = alloca i32, align 4
  %customID = alloca %"class.icu_75::UnicodeString", align 8
  %call = call noundef signext i8 @_ZN6icu_758TimeZone13parseCustomIDERKNS_13UnicodeStringERiS4_S4_S4_(ptr noundef nonnull align 8 dereferenceable(64) %id, ptr noundef nonnull align 4 dereferenceable(4) %sign, ptr noundef nonnull align 4 dereferenceable(4) %hour, ptr noundef nonnull align 4 dereferenceable(4) %min, ptr noundef nonnull align 4 dereferenceable(4) %sec), !range !5
  %tobool.not = icmp eq i8 %call, 0
  br i1 %tobool.not, label %return, label %if.then

if.then:                                          ; preds = %entry
  store ptr getelementptr inbounds ({ [13 x ptr] }, ptr @_ZTVN6icu_7513UnicodeStringE, i64 0, i32 0, i64 2), ptr %customID, align 8
  %fUnion2.i = getelementptr inbounds i8, ptr %customID, i64 8
  store i16 2, ptr %fUnion2.i, align 8
  %0 = load i32, ptr %hour, align 4
  %1 = load i32, ptr %min, align 4
  %2 = load i32, ptr %sec, align 4
  %3 = load i32, ptr %sign, align 4
  %.lobit = lshr i32 %3, 31
  %conv = trunc i32 %.lobit to i8
  %call1 = invoke noundef nonnull align 8 dereferenceable(64) ptr @_ZN6icu_758TimeZone14formatCustomIDEiiiaRNS_13UnicodeStringE(i32 noundef %0, i32 noundef %1, i32 noundef %2, i8 noundef signext %conv, ptr noundef nonnull align 8 dereferenceable(64) %customID)
          to label %invoke.cont unwind label %lpad

invoke.cont:                                      ; preds = %if.then
  %call6 = call noundef ptr @_ZN6icu_757UMemorynwEm(i64 noundef 160) #18
  %new.isnull = icmp eq ptr %call6, null
  br i1 %new.isnull, label %new.cont, label %new.notnull

new.notnull:                                      ; preds = %invoke.cont
  %mul = mul nsw i32 %0, 60
  %add = add nsw i32 %mul, %1
  %mul2 = mul nsw i32 %add, 60
  %add3 = add nsw i32 %mul2, %2
  %mul4 = mul i32 %3, 1000
  %mul5 = mul i32 %mul4, %add3
  invoke void @_ZN6icu_7514SimpleTimeZoneC1EiRKNS_13UnicodeStringE(ptr noundef nonnull align 8 dereferenceable(160) %call6, i32 noundef %mul5, ptr noundef nonnull align 8 dereferenceable(64) %customID)
          to label %new.cont unwind label %lpad7

new.cont:                                         ; preds = %new.notnull, %invoke.cont
  call void @_ZN6icu_7513UnicodeStringD1Ev(ptr noundef nonnull align 8 dereferenceable(64) %customID) #18
  br label %return

lpad:                                             ; preds = %if.then
  %4 = landingpad { ptr, i32 }
          cleanup
  br label %ehcleanup

lpad7:                                            ; preds = %new.notnull
  %5 = landingpad { ptr, i32 }
          cleanup
  call void @_ZN6icu_757UMemorydlEPv(ptr noundef nonnull %call6) #18
  br label %ehcleanup

ehcleanup:                                        ; preds = %lpad7, %lpad
  %.pn = phi { ptr, i32 } [ %5, %lpad7 ], [ %4, %lpad ]
  call void @_ZN6icu_7513UnicodeStringD1Ev(ptr noundef nonnull align 8 dereferenceable(64) %customID) #18
  resume { ptr, i32 } %.pn

return:                                           ; preds = %entry, %new.cont
  %retval.0 = phi ptr [ %call6, %new.cont ], [ null, %entry ]
  ret ptr %retval.0
}